target datalayout = "e-m:e-p270:32:32-p271:32:32-p272:64:64-i64:64-i128:128-f80:128-n8:16:32:64-S128"
target triple = "x86_64-pc-linux-gnu"

%struct.rb_control_frame_struct = type { ptr, ptr, ptr, i64, ptr, ptr, ptr }
%struct.rb_callinfo = type { i64, ptr, i64, i64, i64 }
%struct.rb_calling_info = type { ptr, ptr, i64, i64, i32, i8, i64 }
%struct.rb_callinfo_kwarg = type { i32, i32, [0 x i64] }

; Function Attrs: inlinehint nounwind sspstrong uwtable
define internal zeroext i1 @vm_ci_packed_p(ptr noundef %0) #2 {
  %2 = alloca i1, align 1
  %3 = alloca ptr, align 8
  store ptr %0, ptr %3, align 8, !tbaa !142
  %4 = load ptr, ptr %3, align 8, !tbaa !142
  %5 = ptrtoint ptr %4 to i64
  %6 = and i64 %5, 1
  %7 = icmp ne i64 %6, 0
  %8 = xor i1 %7, true
  %9 = xor i1 %8, true
  %10 = zext i1 %9 to i32
  %11 = sext i32 %10 to i64
  %12 = call i64 @llvm.expect.i64(i64 %11, i64 1)
  %13 = icmp ne i64 %12, 0
  br i1 %13, label %14, label %15

14:                                               ; preds = %1
  store i1 true, ptr %2, align 1
  br label %16

15:                                               ; preds = %1
  store i1 false, ptr %2, align 1
  br label %16

16:                                               ; preds = %15, %14
  %17 = load i1, ptr %2, align 1
  ret i1 %17
}

; Function Attrs: inlinehint nounwind sspstrong uwtable
define internal ptr @vm_ci_kwarg(ptr noundef %0) #2 {
  %2 = alloca ptr, align 8
  %3 = alloca ptr, align 8
  store ptr %0, ptr %3, align 8, !tbaa !142
  %4 = load ptr, ptr %3, align 8, !tbaa !142
  %5 = call zeroext i1 @vm_ci_packed_p(ptr noundef %4)
  br i1 %5, label %6, label %7

6:                                                ; preds = %1
  store ptr null, ptr %2, align 8
  br label %11

7:                                                ; preds = %1
  %8 = load ptr, ptr %3, align 8, !tbaa !142
  %9 = getelementptr inbounds nuw %struct.rb_callinfo, ptr %8, i32 0, i32 1
  %10 = load ptr, ptr %9, align 8, !tbaa !208
  store ptr %10, ptr %2, align 8
  br label %11

11:                                               ; preds = %7, %6
  %12 = load ptr, ptr %2, align 8
  ret ptr %12
}

; Function Attrs: inlinehint nounwind sspstrong uwtable
define internal void @vm_caller_setup_arg_kw(ptr noundef %0, ptr noundef %1, ptr noundef %2) #2 {
  %4 = alloca ptr, align 8
  %5 = alloca ptr, align 8
  %6 = alloca ptr, align 8
  %7 = alloca ptr, align 8
  %8 = alloca i32, align 4
  %9 = alloca i64, align 8
  %10 = alloca ptr, align 8
  %11 = alloca i32, align 4
  store ptr %0, ptr %4, align 8, !tbaa !14
  store ptr %1, ptr %5, align 8, !tbaa !186
  store ptr %2, ptr %6, align 8, !tbaa !142
  call void @llvm.lifetime.start.p0(i64 8, ptr %7) #21
  %12 = load ptr, ptr %6, align 8, !tbaa !142
  %13 = call ptr @vm_ci_kwarg(ptr noundef %12)
  %14 = getelementptr inbounds nuw %struct.rb_callinfo_kwarg, ptr %13, i32 0, i32 2
  %15 = getelementptr inbounds [0 x i64], ptr %14, i64 0, i64 0
  store ptr %15, ptr %7, align 8, !tbaa !7
  call void @llvm.lifetime.start.p0(i64 4, ptr %8) #21
  %16 = load ptr, ptr %6, align 8, !tbaa !142
  %17 = call ptr @vm_ci_kwarg(ptr noundef %16)
  %18 = getelementptr inbounds nuw %struct.rb_callinfo_kwarg, ptr %17, i32 0, i32 0
  %19 = load i32, ptr %18, align 8, !tbaa !24
  store i32 %19, ptr %8, align 4, !tbaa !24
  call void @llvm.lifetime.start.p0(i64 8, ptr %9) #21
  %20 = load i32, ptr %8, align 4, !tbaa !24
  %21 = sext i32 %20 to i64
  %22 = call i64 @rb_hash_new_with_size(i64 noundef %21)
  store i64 %22, ptr %9, align 8, !tbaa !31
  call void @llvm.lifetime.start.p0(i64 8, ptr %10) #21
  %23 = load ptr, ptr %4, align 8, !tbaa !14
  %24 = getelementptr inbounds nuw %struct.rb_control_frame_struct, ptr %23, i32 0, i32 1
  %25 = load ptr, ptr %24, align 8, !tbaa !101
  store ptr %25, ptr %10, align 8, !tbaa !7
  call void @llvm.lifetime.start.p0(i64 4, ptr %11) #21
  store i32 0, ptr %11, align 4, !tbaa !24
  br label %26

26:                                               ; preds = %47, %3
  %27 = load i32, ptr %11, align 4, !tbaa !24
  %28 = load i32, ptr %8, align 4, !tbaa !24
  %29 = icmp slt i32 %27, %28
  br i1 %29, label %30, label %50

30:                                               ; preds = %26
  %31 = load i64, ptr %9, align 8, !tbaa !31
  %32 = load ptr, ptr %7, align 8, !tbaa !7
  %33 = load i32, ptr %11, align 4, !tbaa !24
  %34 = sext i32 %33 to i64
  %35 = getelementptr i64, ptr %32, i64 %34
  %36 = load i64, ptr %35, align 8, !tbaa !31
  %37 = load ptr, ptr %10, align 8, !tbaa !7
  %38 = load i32, ptr %8, align 4, !tbaa !24
  %39 = sext i32 %38 to i64
  %40 = sub i64 0, %39
  %41 = getelementptr i64, ptr %37, i64 %40
  %42 = load i32, ptr %11, align 4, !tbaa !24
  %43 = sext i32 %42 to i64
  %44 = getelementptr i64, ptr %41, i64 %43
  %45 = load i64, ptr %44, align 8, !tbaa !31
  %46 = call i64 @rb_hash_aset(i64 noundef %31, i64 noundef %36, i64 noundef %45)
  br label %47

47:                                               ; preds = %30
  %48 = load i32, ptr %11, align 4, !tbaa !24
  %49 = add i32 %48, 1
  store i32 %49, ptr %11, align 4, !tbaa !24
  br label %26, !llvm.loop !696

50:                                               ; preds = %26
  %51 = load i64, ptr %9, align 8, !tbaa !31
  %52 = load ptr, ptr %10, align 8, !tbaa !7
  %53 = load i32, ptr %8, align 4, !tbaa !24
  %54 = sext i32 %53 to i64
  %55 = sub i64 0, %54
  %56 = getelementptr i64, ptr %52, i64 %55
  %57 = getelementptr i64, ptr %56, i64 0
  store i64 %51, ptr %57, align 8, !tbaa !31
  %58 = load i32, ptr %8, align 4, !tbaa !24
  %59 = sub i32 %58, 1
  %60 = load ptr, ptr %4, align 8, !tbaa !14
  %61 = getelementptr inbounds nuw %struct.rb_control_frame_struct, ptr %60, i32 0, i32 1
  %62 = load ptr, ptr %61, align 8, !tbaa !101
  %63 = sext i32 %59 to i64
  %64 = sub i64 0, %63
  %65 = getelementptr i64, ptr %62, i64 %64
  store ptr %65, ptr %61, align 8, !tbaa !101
  %66 = load i32, ptr %8, align 4, !tbaa !24
  %67 = sub i32 %66, 1
  %68 = load ptr, ptr %5, align 8, !tbaa !186
  %69 = getelementptr inbounds nuw %struct.rb_calling_info, ptr %68, i32 0, i32 4
  %70 = load i32, ptr %69, align 8, !tbaa !219
  %71 = sub i32 %70, %67
  store i32 %71, ptr %69, align 8, !tbaa !219
  %72 = load ptr, ptr %5, align 8, !tbaa !186
  %73 = getelementptr inbounds nuw %struct.rb_calling_info, ptr %72, i32 0, i32 5
  store i8 1, ptr %73, align 4, !tbaa !220
  call void @llvm.lifetime.end.p0(i64 4, ptr %11) #21
  call void @llvm.lifetime.end.p0(i64 8, ptr %10) #21
  call void @llvm.lifetime.end.p0(i64 8, ptr %9) #21
  call void @llvm.lifetime.end.p0(i64 4, ptr %8) #21
  call void @llvm.lifetime.end.p0(i64 8, ptr %7) #21
  ret void
}