; Function Attrs: inlinehint nounwind sspstrong uwtable
define internal fastcc void @vm_caller_setup_arg_kw(ptr noundef captures(none) %0, ptr noundef captures(none) %1, ptr noundef %2) unnamed_addr #12 {
vm_ci_kwarg.exit23:
  %3 = ptrtoint ptr %2 to i64
  %4 = and i64 %3, 1
  %.not.i.not.i = icmp eq i64 %4, 0
  tail call void @llvm.assume(i1 %.not.i.not.i)
  %5 = getelementptr inbounds nuw i8, ptr %2, i64 8
  %6 = load ptr, ptr %5, align 8, !tbaa !223
  %7 = getelementptr inbounds nuw i8, ptr %6, i64 8
  %8 = load i32, ptr %6, align 8, !tbaa !139
  %9 = sext i32 %8 to i64
  %10 = tail call i64 @rb_hash_new_with_size(i64 noundef %9) #21
  %11 = getelementptr inbounds nuw i8, ptr %0, i64 8
  %12 = load ptr, ptr %11, align 8, !tbaa !93
  %13 = icmp sgt i32 %8, 0
  %14 = sub nsw i64 0, %9
  br i1 %13, label %.lr.ph, label %._crit_edge

.lr.ph:                                           ; preds = %vm_ci_kwarg.exit23
  %15 = getelementptr i64, ptr %12, i64 %14
  %wide.trip.count = zext nneg i32 %8 to i64
  br label %16

16:                                               ; preds = %.lr.ph, %16
  %indvars.iv = phi i64 [ 0, %.lr.ph ], [ %indvars.iv.next, %16 ]
  %17 = getelementptr i64, ptr %7, i64 %indvars.iv
  %18 = load i64, ptr %17, align 8, !tbaa !7
  %19 = getelementptr i64, ptr %15, i64 %indvars.iv
  %20 = load i64, ptr %19, align 8, !tbaa !7
  %21 = tail call i64 @rb_hash_aset(i64 noundef %10, i64 noundef %18, i64 noundef %20) #21
  %indvars.iv.next = add nuw nsw i64 %indvars.iv, 1
  %exitcond.not = icmp eq i64 %indvars.iv.next, %wide.trip.count
  br i1 %exitcond.not, label %._crit_edge.loopexit, label %16, !llvm.loop !688

._crit_edge.loopexit:                             ; preds = %16
  %.pre = load ptr, ptr %11, align 8, !tbaa !93
  br label %._crit_edge

._crit_edge:                                      ; preds = %vm_ci_kwarg.exit23, %._crit_edge.loopexit
  %22 = phi ptr [ %.pre, %._crit_edge.loopexit ], [ %12, %vm_ci_kwarg.exit23 ]
  %23 = getelementptr i64, ptr %12, i64 %14
  store i64 %10, ptr %23, align 8, !tbaa !7
  %24 = add i32 %8, -1
  %25 = sext i32 %24 to i64
  %26 = sub nsw i64 0, %25
  %27 = getelementptr i64, ptr %22, i64 %26
  store ptr %27, ptr %11, align 8, !tbaa !93
  %28 = getelementptr inbounds nuw i8, ptr %1, i64 32
  %29 = load i32, ptr %28, align 8, !tbaa !213
  %30 = sub i32 %29, %24
  store i32 %30, ptr %28, align 8, !tbaa !213
  %31 = getelementptr inbounds nuw i8, ptr %1, i64 36
  store i8 1, ptr %31, align 4, !tbaa !214
  ret void
}